target datalayout = "e-m:e-p270:32:32-p271:32:32-p272:64:64-i64:64-i128:128-f80:128-n8:16:32:64-S128"
target triple = "x86_64-pc-linux-gnu"

%"class.boost::json::storage_ptr" = type { i64 }
%"class.boost::json::detail::stack" = type { %"class.boost::json::storage_ptr", i64, i64, ptr, ptr, ptr }
%"class.std::ios_base" = type { ptr, i64, i64, i32, i32, i32, ptr, %"struct.std::ios_base::_Words", [8 x %"struct.std::ios_base::_Words"], i32, ptr, %"class.std::locale" }
%"struct.std::ios_base::_Words" = type { ptr, i64 }
%"class.std::locale" = type { ptr }
%"class.boost::json::serializer" = type <{ %"struct.boost::json::detail::writer.base", [4 x i8], ptr, ptr, i8, [7 x i8] }>
%"struct.boost::json::detail::writer.base" = type <{ %"class.boost::json::detail::stack", %"struct.boost::json::serialize_options", [7 x i8], %"class.boost::json::detail::const_stream", ptr, [28 x i8] }>
%"struct.boost::json::serialize_options" = type { i8 }
%"class.boost::json::detail::const_stream" = type { ptr, ptr }
%"struct.boost::json::detail::writer" = type <{ %"class.boost::json::detail::stack", %"struct.boost::json::serialize_options", [7 x i8], %"class.boost::json::detail::const_stream", ptr, [28 x i8], [4 x i8] }>
%"struct.boost::json::detail::stack::non_trivial" = type { ptr, ptr, i64 }

@_ZN5boost4json12_GLOBAL__N_116serialize_xallocE = internal global i32 0, align 4
@_ZN5boost4json10serializerC1ERKNS0_17serialize_optionsE = unnamed_addr alias void (ptr, ptr), ptr @_ZN5boost4json10serializerC2ERKNS0_17serialize_optionsE
@_ZN5boost4json6detail5stackD1Ev = unnamed_addr alias void (ptr), ptr @_ZN5boost4json6detail5stackD2Ev

; Function Attrs: mustprogress nounwind uwtable
define noundef ptr @_ZN5boost4json6detail5stack11non_trivialIvE7destroyEv(ptr noundef nonnull align 8 dereferenceable(24) %0) #2 align 2 personality ptr @__gxx_personality_v0 {
  %2 = alloca ptr, align 8
  %3 = alloca ptr, align 8
  store ptr %0, ptr %2, align 8, !tbaa !3
  %4 = load ptr, ptr %2, align 8
  call void @llvm.lifetime.start.p0(i64 8, ptr %3) #10
  %5 = getelementptr inbounds nuw %"struct.boost::json::detail::stack::non_trivial", ptr %4, i32 0, i32 1
  %6 = load ptr, ptr %5, align 8, !tbaa !269
  store ptr %6, ptr %3, align 8, !tbaa !3
  %7 = getelementptr inbounds nuw %"struct.boost::json::detail::stack::non_trivial", ptr %4, i32 0, i32 0
  %8 = load ptr, ptr %7, align 8, !tbaa !271
  %9 = invoke noundef ptr %8(ptr noundef %4, ptr noundef null)
          to label %10 unwind label %12

10:                                               ; preds = %1
  %11 = load ptr, ptr %3, align 8, !tbaa !3
  call void @llvm.lifetime.end.p0(i64 8, ptr %3) #10
  ret ptr %11

12:                                               ; preds = %1
  %13 = landingpad { ptr, i32 }
          catch ptr null
  %14 = extractvalue { ptr, i32 } %13, 0
  call void @__clang_call_terminate(ptr %14) #34
  unreachable
}

; Function Attrs: mustprogress nounwind uwtable
define void @_ZN5boost4json6detail5stack5clearEv(ptr noundef nonnull align 8 dereferenceable(48) %0) #2 align 2 {
  %2 = alloca ptr, align 8
  store ptr %0, ptr %2, align 8, !tbaa !3
  %3 = load ptr, ptr %2, align 8
  br label %4

4:                                                ; preds = %8, %1
  %5 = getelementptr inbounds nuw %"class.boost::json::detail::stack", ptr %3, i32 0, i32 3
  %6 = load ptr, ptr %5, align 8, !tbaa !222
  %7 = icmp ne ptr %6, null
  br i1 %7, label %8, label %13

8:                                                ; preds = %4
  %9 = getelementptr inbounds nuw %"class.boost::json::detail::stack", ptr %3, i32 0, i32 3
  %10 = load ptr, ptr %9, align 8, !tbaa !222
  %11 = call noundef ptr @_ZN5boost4json6detail5stack11non_trivialIvE7destroyEv(ptr noundef nonnull align 8 dereferenceable(24) %10) #10
  %12 = getelementptr inbounds nuw %"class.boost::json::detail::stack", ptr %3, i32 0, i32 3
  store ptr %11, ptr %12, align 8, !tbaa !222
  br label %4, !llvm.loop !223

13:                                               ; preds = %4
  %14 = getelementptr inbounds nuw %"class.boost::json::detail::stack", ptr %3, i32 0, i32 2
  store i64 0, ptr %14, align 8, !tbaa !224
  ret void
}

; Function Attrs: inlinehint mustprogress nounwind uwtable
define linkonce_odr hidden void @_ZN5boost4json17serialize_optionsC2Ev(ptr noundef nonnull align 1 dereferenceable(1) %0) unnamed_addr #1 comdat align 2 {
  %2 = alloca ptr, align 8
  store ptr %0, ptr %2, align 8, !tbaa !3
  %3 = load ptr, ptr %2, align 8
  %4 = getelementptr inbounds nuw %"struct.boost::json::serialize_options", ptr %3, i32 0, i32 0
  store i8 0, ptr %4, align 1, !tbaa !198
  ret void
}

; Function Attrs: mustprogress uwtable
define linkonce_odr hidden noundef nonnull align 8 dereferenceable(8) ptr @_ZNSt8ios_base5iwordEi(ptr noundef nonnull align 8 dereferenceable(216) %0, i32 noundef %1) #5 comdat align 2 {
  %3 = alloca ptr, align 8
  %4 = alloca i32, align 4
  %5 = alloca ptr, align 8
  store ptr %0, ptr %3, align 8, !tbaa !3
  store i32 %1, ptr %4, align 4, !tbaa !7
  %6 = load ptr, ptr %3, align 8
  call void @llvm.lifetime.start.p0(i64 8, ptr %5) #10
  %7 = load i32, ptr %4, align 4, !tbaa !7
  %8 = getelementptr inbounds nuw %"class.std::ios_base", ptr %6, i32 0, i32 9
  %9 = load i32, ptr %8, align 8, !tbaa !200
  %10 = icmp ult i32 %7, %9
  br i1 %10, label %11, label %17

11:                                               ; preds = %2
  %12 = getelementptr inbounds nuw %"class.std::ios_base", ptr %6, i32 0, i32 10
  %13 = load ptr, ptr %12, align 8, !tbaa !206
  %14 = load i32, ptr %4, align 4, !tbaa !7
  %15 = sext i32 %14 to i64
  %16 = getelementptr inbounds %"struct.std::ios_base::_Words", ptr %13, i64 %15
  br label %20

17:                                               ; preds = %2
  %18 = load i32, ptr %4, align 4, !tbaa !7
  %19 = call noundef nonnull align 8 dereferenceable(16) ptr @_ZNSt8ios_base13_M_grow_wordsEib(ptr noundef nonnull align 8 dereferenceable(216) %6, i32 noundef %18, i1 noundef zeroext true)
  br label %20

20:                                               ; preds = %17, %11
  %21 = phi ptr [ %16, %11 ], [ %19, %17 ]
  store ptr %21, ptr %5, align 8, !tbaa !3
  %22 = load ptr, ptr %5, align 8, !tbaa !3
  %23 = getelementptr inbounds nuw %"struct.std::ios_base::_Words", ptr %22, i32 0, i32 1
  call void @llvm.lifetime.end.p0(i64 8, ptr %5) #10
  ret ptr %23
}

; Function Attrs: inlinehint mustprogress nounwind uwtable
define linkonce_odr hidden void @_ZN5boost4json6detail6writerD2Ev(ptr noundef nonnull align 8 dereferenceable(108) %0) unnamed_addr #1 comdat align 2 {
  %2 = alloca ptr, align 8
  store ptr %0, ptr %2, align 8, !tbaa !3
  %3 = load ptr, ptr %2, align 8
  %4 = getelementptr inbounds nuw %"struct.boost::json::detail::writer", ptr %3, i32 0, i32 0
  call void @_ZN5boost4json6detail5stackD1Ev(ptr noundef nonnull align 8 dereferenceable(48) %4) #10
  ret void
}

; Function Attrs: mustprogress nounwind uwtable
define void @_ZN5boost4json10serializer5resetEPKNS0_5arrayE(ptr noundef nonnull align 8 dereferenceable(129) %0, ptr noundef %1) #2 align 2 {
  %3 = alloca ptr, align 8
  %4 = alloca ptr, align 8
  store ptr %0, ptr %3, align 8, !tbaa !3
  store ptr %1, ptr %4, align 8, !tbaa !3
  %5 = load ptr, ptr %3, align 8
  %6 = load ptr, ptr %4, align 8, !tbaa !3
  %7 = getelementptr inbounds nuw %"struct.boost::json::detail::writer", ptr %5, i32 0, i32 4
  store ptr %6, ptr %7, align 8, !tbaa !193
  %8 = getelementptr inbounds nuw %"class.boost::json::serializer", ptr %5, i32 0, i32 2
  store ptr @_ZN5boost4json6detail11write_arrayILb1EEEbRNS1_6writerERNS1_6streamE, ptr %8, align 8, !tbaa !191
  %9 = getelementptr inbounds nuw %"class.boost::json::serializer", ptr %5, i32 0, i32 3
  store ptr @_ZN5boost4json6detail11write_arrayILb0EEEbRNS1_6writerERNS1_6streamE, ptr %9, align 8, !tbaa !192
  %10 = getelementptr inbounds nuw %"struct.boost::json::detail::writer", ptr %5, i32 0, i32 0
  call void @_ZN5boost4json6detail5stack5clearEv(ptr noundef nonnull align 8 dereferenceable(48) %10) #10
  %11 = getelementptr inbounds nuw %"class.boost::json::serializer", ptr %5, i32 0, i32 4
  store i8 0, ptr %11, align 8, !tbaa !186
  ret void
}

; Function Attrs: mustprogress uwtable
define internal i8 @_ZN5boost4json12_GLOBAL__N_116get_stream_flagsERSo(ptr noundef nonnull align 8 dereferenceable(8) %0) #5 {
  %2 = alloca %"struct.boost::json::serialize_options", align 1
  %3 = alloca ptr, align 8
  %4 = alloca i64, align 8
  store ptr %0, ptr %3, align 8, !tbaa !3
  call void @llvm.lifetime.start.p0(i64 8, ptr %4) #10
  %5 = load ptr, ptr %3, align 8, !tbaa !3
  %6 = load ptr, ptr %5, align 8, !tbaa !14
  %7 = getelementptr i8, ptr %6, i64 -24
  %8 = load i64, ptr %7, align 8
  %9 = getelementptr inbounds i8, ptr %5, i64 %8
  %10 = load i32, ptr @_ZN5boost4json12_GLOBAL__N_116serialize_xallocE, align 4, !tbaa !7
  %11 = call noundef nonnull align 8 dereferenceable(8) ptr @_ZNSt8ios_base5iwordEi(ptr noundef nonnull align 8 dereferenceable(216) %9, i32 noundef %10)
  %12 = load i64, ptr %11, align 8, !tbaa !16
  store i64 %12, ptr %4, align 8, !tbaa !16
  call void @_ZN5boost4json17serialize_optionsC2Ev(ptr noundef nonnull align 1 dereferenceable(1) %2) #10
  %13 = load i64, ptr %4, align 8, !tbaa !16
  %14 = and i64 %13, 1
  %15 = icmp ne i64 %14, 0
  %16 = getelementptr inbounds nuw %"struct.boost::json::serialize_options", ptr %2, i32 0, i32 0
  %17 = zext i1 %15 to i8
  store i8 %17, ptr %16, align 1, !tbaa !198
  call void @llvm.lifetime.end.p0(i64 8, ptr %4) #10
  %18 = getelementptr inbounds nuw %"struct.boost::json::serialize_options", ptr %2, i32 0, i32 0
  %19 = load i8, ptr %18, align 1
  ret i8 %19
}

; Function Attrs: mustprogress uwtable
define noundef nonnull align 8 dereferenceable(8) ptr @_ZN5boost4jsonlsERSoRKNS0_5arrayE(ptr noundef nonnull align 8 dereferenceable(8) %0, ptr noundef nonnull align 8 dereferenceable(24) %1) #5 personality ptr @__gxx_personality_v0 {
  %3 = alloca ptr, align 8
  %4 = alloca ptr, align 8
  %5 = alloca %"class.boost::json::serializer", align 8
  %6 = alloca %"struct.boost::json::serialize_options", align 1
  %7 = alloca ptr, align 8
  %8 = alloca i32, align 4
  store ptr %0, ptr %3, align 8, !tbaa !3
  store ptr %1, ptr %4, align 8, !tbaa !3
  call void @llvm.lifetime.start.p0(i64 136, ptr %5) #10
  call void @llvm.lifetime.start.p0(i64 1, ptr %6) #10
  %9 = load ptr, ptr %3, align 8, !tbaa !3
  %10 = call i8 @_ZN5boost4json12_GLOBAL__N_116get_stream_flagsERSo(ptr noundef nonnull align 8 dereferenceable(8) %9)
  %11 = getelementptr inbounds nuw %"struct.boost::json::serialize_options", ptr %6, i32 0, i32 0
  store i8 %10, ptr %11, align 1
  call void @_ZN5boost4json10serializerC1ERKNS0_17serialize_optionsE(ptr noundef nonnull align 8 dereferenceable(129) %5, ptr noundef nonnull align 1 dereferenceable(1) %6) #10
  call void @llvm.lifetime.end.p0(i64 1, ptr %6) #10
  %12 = load ptr, ptr %4, align 8, !tbaa !3
  call void @_ZN5boost4json10serializer5resetEPKNS0_5arrayE(ptr noundef nonnull align 8 dereferenceable(129) %5, ptr noundef %12) #10
  %13 = load ptr, ptr %3, align 8, !tbaa !3
  invoke void @_ZN5boost4jsonL10to_ostreamERSoRNS0_10serializerE(ptr noundef nonnull align 8 dereferenceable(8) %13, ptr noundef nonnull align 8 dereferenceable(129) %5)
          to label %14 unwind label %16

14:                                               ; preds = %2
  %15 = load ptr, ptr %3, align 8, !tbaa !3
  call void @_ZN5boost4json6detail6writerD2Ev(ptr noundef nonnull align 8 dereferenceable(129) %5) #10
  call void @llvm.lifetime.end.p0(i64 136, ptr %5) #10
  ret ptr %15

16:                                               ; preds = %2
  %17 = landingpad { ptr, i32 }
          cleanup
  %18 = extractvalue { ptr, i32 } %17, 0
  store ptr %18, ptr %7, align 8
  %19 = extractvalue { ptr, i32 } %17, 1
  store i32 %19, ptr %8, align 4
  call void @_ZN5boost4json6detail6writerD2Ev(ptr noundef nonnull align 8 dereferenceable(129) %5) #10
  call void @llvm.lifetime.end.p0(i64 136, ptr %5) #10
  br label %20

20:                                               ; preds = %16
  %21 = load ptr, ptr %7, align 8
  %22 = load i32, ptr %8, align 4
  %23 = insertvalue { ptr, i32 } poison, ptr %21, 0
  %24 = insertvalue { ptr, i32 } %23, i32 %22, 1
  resume { ptr, i32 } %24
}