; Function Attrs: mustprogress uwtable
define noundef nonnull align 8 dereferenceable(8) ptr @_ZN5boost4jsonlsERSoRKNS0_5arrayE(ptr noundef nonnull returned align 8 dereferenceable(8) %0, ptr noundef nonnull align 8 dereferenceable(24) %1) local_unnamed_addr #5 personality ptr @__gxx_personality_v0 {
  %3 = alloca %"class.boost::json::serializer", align 8
  %4 = alloca %"struct.boost::json::serialize_options", align 1
  call void @llvm.lifetime.start.p0(i64 136, ptr nonnull %3) #48
  call void @llvm.lifetime.start.p0(i64 1, ptr nonnull %4) #48
  %5 = load ptr, ptr %0, align 8, !tbaa !19
  %6 = getelementptr i8, ptr %5, i64 -24
  %7 = load i64, ptr %6, align 8
  %8 = getelementptr inbounds i8, ptr %0, i64 %7
  %9 = load i32, ptr @_ZN5boost4json12_GLOBAL__N_116serialize_xallocE, align 4, !tbaa !114
  %10 = getelementptr inbounds nuw i8, ptr %8, i64 192
  %11 = load i32, ptr %10, align 8, !tbaa !346
  %12 = icmp ult i32 %9, %11
  br i1 %12, label %13, label %18

13:                                               ; preds = %2
  %14 = getelementptr inbounds nuw i8, ptr %8, i64 200
  %15 = load ptr, ptr %14, align 8, !tbaa !347
  %16 = sext i32 %9 to i64
  %17 = getelementptr inbounds %"struct.std::ios_base::_Words", ptr %15, i64 %16
  br label %_ZN5boost4json12_GLOBAL__N_116get_stream_flagsERSo.exit

18:                                               ; preds = %2
  %19 = tail call noundef nonnull align 8 dereferenceable(16) ptr @_ZNSt8ios_base13_M_grow_wordsEib(ptr noundef nonnull align 8 dereferenceable(216) %8, i32 noundef %9, i1 noundef zeroext true)
  br label %_ZN5boost4json12_GLOBAL__N_116get_stream_flagsERSo.exit

_ZN5boost4json12_GLOBAL__N_116get_stream_flagsERSo.exit: ; preds = %13, %18
  %20 = phi ptr [ %17, %13 ], [ %19, %18 ]
  %21 = getelementptr inbounds nuw i8, ptr %20, i64 8
  %22 = load i64, ptr %21, align 8, !tbaa !11
  %23 = trunc i64 %22 to i8
  %24 = and i8 %23, 1
  store i8 %24, ptr %4, align 1
  call void @_ZN5boost4json10serializerC1ERKNS0_17serialize_optionsE(ptr noundef nonnull align 8 dereferenceable(129) %3, ptr noundef nonnull align 1 dereferenceable(1) %4) #48
  call void @llvm.lifetime.end.p0(i64 1, ptr nonnull %4) #48
  %25 = getelementptr inbounds nuw i8, ptr %3, i64 72
  store ptr %1, ptr %25, align 8, !tbaa !339
  %26 = getelementptr inbounds nuw i8, ptr %3, i64 112
  store ptr @_ZN5boost4json6detail11write_arrayILb1EEEbRNS1_6writerERNS1_6streamE, ptr %26, align 8, !tbaa !334
  %27 = getelementptr inbounds nuw i8, ptr %3, i64 120
  store ptr @_ZN5boost4json6detail11write_arrayILb0EEEbRNS1_6writerERNS1_6streamE, ptr %27, align 8, !tbaa !340
  %28 = getelementptr inbounds nuw i8, ptr %3, i64 24
  %29 = load ptr, ptr %28, align 8, !tbaa !185
  %.not1.i.i = icmp eq ptr %29, null
  br i1 %.not1.i.i, label %_ZN5boost4json10serializer5resetEPKNS0_5arrayE.exit, label %.lr.ph.i.i

.lr.ph.i.i:                                       ; preds = %_ZN5boost4json12_GLOBAL__N_116get_stream_flagsERSo.exit, %_ZN5boost4json6detail5stack11non_trivialIvE7destroyEv.exit.i.i
  %30 = phi ptr [ %32, %_ZN5boost4json6detail5stack11non_trivialIvE7destroyEv.exit.i.i ], [ %29, %_ZN5boost4json12_GLOBAL__N_116get_stream_flagsERSo.exit ]
  %31 = getelementptr inbounds nuw i8, ptr %30, i64 8
  %32 = load ptr, ptr %31, align 8, !tbaa !186
  %33 = load ptr, ptr %30, align 8, !tbaa !188
  %34 = invoke noundef ptr %33(ptr noundef nonnull align 8 dereferenceable(24) %30, ptr noundef null)
          to label %_ZN5boost4json6detail5stack11non_trivialIvE7destroyEv.exit.i.i unwind label %35

35:                                               ; preds = %.lr.ph.i.i
  %36 = landingpad { ptr, i32 }
          catch ptr null
  %37 = extractvalue { ptr, i32 } %36, 0
  call void @__clang_call_terminate(ptr %37) #50
  unreachable

_ZN5boost4json6detail5stack11non_trivialIvE7destroyEv.exit.i.i: ; preds = %.lr.ph.i.i
  store ptr %32, ptr %28, align 8, !tbaa !185
  %.not.i.i = icmp eq ptr %32, null
  br i1 %.not.i.i, label %_ZN5boost4json10serializer5resetEPKNS0_5arrayE.exit, label %.lr.ph.i.i, !llvm.loop !189

_ZN5boost4json10serializer5resetEPKNS0_5arrayE.exit: ; preds = %_ZN5boost4json6detail5stack11non_trivialIvE7destroyEv.exit.i.i, %_ZN5boost4json12_GLOBAL__N_116get_stream_flagsERSo.exit
  %38 = getelementptr inbounds nuw i8, ptr %3, i64 16
  store i64 0, ptr %38, align 8, !tbaa !190
  %39 = getelementptr inbounds nuw i8, ptr %3, i64 128
  store i8 0, ptr %39, align 8, !tbaa !341
  invoke fastcc void @_ZN5boost4jsonL10to_ostreamERSoRNS0_10serializerE(ptr noundef nonnull align 8 dereferenceable(8) %0, ptr noundef nonnull align 8 dereferenceable(129) %3)
          to label %40 unwind label %41

40:                                               ; preds = %_ZN5boost4json10serializer5resetEPKNS0_5arrayE.exit
  call void @_ZN5boost4json6detail5stackD1Ev(ptr noundef nonnull align 8 dereferenceable(129) %3) #48
  call void @llvm.lifetime.end.p0(i64 136, ptr nonnull %3) #48
  ret ptr %0

41:                                               ; preds = %_ZN5boost4json10serializer5resetEPKNS0_5arrayE.exit
  %42 = landingpad { ptr, i32 }
          cleanup
  call void @_ZN5boost4json6detail5stackD1Ev(ptr noundef nonnull align 8 dereferenceable(129) %3) #48
  call void @llvm.lifetime.end.p0(i64 136, ptr nonnull %3) #48
  resume { ptr, i32 } %42
}